Certificate:
    Data:
        Version: 1 (0x0)
        Serial Number: 421 (0x1a5)
        Signature Algorithm: md5WithRSAEncryption
        Issuer: C=US, O=GTE Corporation, OU=GTE CyberTrust Solutions, Inc., CN=GTE CyberTrust Global Root
        Validity
            Not Before: Aug 13 00:29:00 1998 GMT
            Not After : Aug 13 23:59:00 2018 GMT
        Subject: C=US, O=GTE Corporation, OU=GTE CyberTrust Solutions, Inc., CN=GTE CyberTrust Global Root
        Subject Public Key Info:
            Public Key Algorithm: rsaEncryption
            RSA Public Key: (1024 bit)
                Modulus (1024 bit):
                    00:95:0f:a0:b6:f0:50:9c:e8:7a:c7:88:cd:dd:17:
                    0e:2e:b0:94:d0:1b:3d:0e:f6:94:c0:8a:94:c7:06:
                    c8:90:97:c8:b8:64:1a:7a:7e:6c:3c:53:e1:37:28:
                    73:60:7f:b2:97:53:07:9f:53:f9:6d:58:94:d2:af:
                    8d:6d:88:67:80:e6:ed:b2:95:cf:72:31:ca:a5:1c:
                    72:ba:5c:02:e7:64:42:e7:f9:a9:2c:d6:3a:0d:ac:
                    8d:42:aa:24:01:39:e6:9c:3f:01:85:57:0d:58:87:
                    45:f8:d3:85:aa:93:69:26:85:70:48:80:3f:12:15:
                    c7:79:b4:1f:05:2f:3b:62:99
                Exponent: 65537 (0x10001)
    Signature Algorithm: md5WithRSAEncryption
        6d:eb:1b:09:e9:5e:d9:51:db:67:22:61:a4:2a:3c:48:77:e3:
        a0:7c:a6:de:73:a2:14:03:85:3d:fb:ab:0e:30:c5:83:16:33:
        81:13:08:9e:7b:34:4e:df:40:c8:74:d7:b9:7d:dc:f4:76:55:
        7d:9b:63:54:18:e9:f0:ea:f3:5c:b1:d9:8b:42:1e:b9:c0:95:
        4e:ba:fa:d5:e2:7c:f5:68:61:bf:8e:ec:05:97:5f:5b:b0:d7:
        a3:85:34:c4:24:a7:0d:0f:95:93:ef:cb:94:d8:9e:1f:9d:5c:
        85:6d:c7:aa:ae:4f:1f:22:b5:cd:95:ad:ba:a7:cc:f9:ab:0b:
        7a:7f
-----BEGIN CERTIFICATE-----
MIICWjCCAcMCAgGlMA0GCSqGSIb3DQEBBAUAMHUxCzAJBgNVBAYTAlVTMRgwFgYD
VQQKEw9HVEUgQ29ycG9yYXRpb24xJzAlBgNVBAsTHkdURSBDeWJlclRydXN0IFNv
bHV0aW9ucywgSW5jLjEjMCEGA1UEAxMaR1RFIEN5YmVyVHJ1c3QgR2xvYmFsIFJv
b3QwHhcNOTgwODEzMDAyOTAwWhcNMTgwODEzMjM1OTAwWjB1MQswCQYDVQQGEwJV
UzEYMBYGA1UEChMPR1RFIENvcnBvcmF0aW9uMScwJQYDVQQLEx5HVEUgQ3liZXJU
cnVzdCBTb2x1dGlvbnMsIEluYy4xIzAhBgNVBAMTGkdURSBDeWJlclRydXN0IEds
b2JhbCBSb290MIGfMA0GCSqGSIb3DQEBAQUAA4GNADCBiQKBgQCVD6C28FCc6HrH
iM3dFw4usJTQGz0O9pTAipTHBsiQl8i4ZBp6fmw8U+E3KHNgf7KXUwefU/ltWJTS
r41tiGeA5u2ylc9yMcqlHHK6XALnZELn+aks1joNrI1CqiQBOeacPwGFVw1Yh0X4
04Wqk2kmhXBIgD8SFcd5tB8FLztimQIDAQABMA0GCSqGSIb3DQEBBAUAA4GBAG3r
GwnpXtlR22ciYaQqPEh346B8pt5zohQDhT37qw4wxYMWM4ETCJ57NE7fQMh017l9
3PR2VX2bY1QY6fDq81yx2YtCHrnAlU66+tXifPVoYb+O7AWXX1uw16OFNMQkpw0P
lZPvy5TYnh+dXIVtx6quTx8itc2VrbqnzPmrC3p/
-----END CERTIFICATE-----
-----BEGIN CERTIFICATE-----
MIIDdzCCAl+gAwIBAgIEAgAAuTANBgkqhkiG9w0BAQUFADBaMQswCQYDVQQGEwJJ
RTESMBAGA1UEChMJQmFsdGltb3JlMRMwEQYDVQQLEwpDeWJlclRydXN0MSIwIAYD
VQQDExlCYWx0aW1vcmUgQ3liZXJUcnVzdCBSb290MB4XDTAwMDUxMjE4NDYwMFoX
DTI1MDUxMjIzNTkwMFowWjELMAkGA1UEBhMCSUUxEjAQBgNVBAoTCUJhbHRpbW9y
ZTETMBEGA1UECxMKQ3liZXJUcnVzdDEiMCAGA1UEAxMZQmFsdGltb3JlIEN5YmVy
VHJ1c3QgUm9vdDCCASIwDQYJKoZIhvcNAQEBBQADggEPADCCAQoCggEBAKMEuyKr
mD1X6CZymrV51Cni4eiVgLGw41uOKymaZN+hXe2wCQVt2yguzmKiYv60iNoS6zjr
IZ3AQSsBUnuId9Mcj8e6uYi1agnnc+gRQKfRzMpijS3ljwumUNKoUMMo6vWrJYeK
mpYcqWe4PwzV9/lSEy/CG9VwcPCPwBLKBsua4dnKM3p31vjsufFoREJIE9LAwqSu
XmD+tqYF/LTdB1kC1FkYmGP1pWPgkAx9XbIGevOF6uvUA65ehD5f/xXtabz5OTZy
dc93Uk3zyZAsuT3lySNTPx8kmCFcB5kpvcY67Oduhjprl3RjM71oGDHweI12v/ye
jl0qhqdNkNwnGjkCAwEAAaNFMEMwHQYDVR0OBBYEFOWdWTCCR1jMrPoIVDaGezq1
BE3wMBIGA1UdEwEB/wQIMAYBAf8CAQMwDgYDVR0PAQH/BAQDAgEGMA0GCSqGSIb3
DQEBBQUAA4IBAQCFDF2O5G9RaEIFoN27TyclhAO992T9Ldcw46QQF+vaKSm2eT92
9hkTI7gQCvlYpNRhcL0EYWoSihfVCr3FvDB81ukMJY2GQE/szKN+OMY3EU/t3Wgx
jkzSswF07r51XgdIGn9w/xZchMB5hbgF/X++ZRGjD8ACtPhSNzkE1akxehi/oCr0
Epn3o0WC4zxe9Z2etciefC7IpJ5OCBRLbf1wbWsaY71k5h+3zvDyny67G7fyUIhz
ksLi4xaNmjICq44Y3ekQEe5+NauQrz4wlHrQMz2nZQ/1/I6eYs9HRCwBXbsdtTLS
R9I4LtD+gdwyah617jzV/OeBHRnDJELqYzmp
-----END CERTIFICATE-----